target datalayout = "e-m:e-p270:32:32-p271:32:32-p272:64:64-i64:64-i128:128-f80:128-n8:16:32:64-S128"
target triple = "x86_64-unknown-linux-gnu"

%"struct.cineon::GenericHeader" = type { i32, i32, i32, i32, i32, i32, [8 x i8], [100 x i8], [12 x i8], [12 x i8], [36 x i8], i8, i8, [2 x i8], [8 x %"struct.cineon::ImageElement"], [2 x float], [2 x float], [2 x float], [2 x float], [200 x i8], [28 x i8], i8, i8, i8, i8, i32, i32, [20 x i8], i32, i32, [100 x i8], [12 x i8], [12 x i8], [64 x i8], [32 x i8], [32 x i8], float, float, float, [40 x i8] }
%"struct.cineon::ImageElement" = type { [2 x i8], i8, i8, i32, i32, float, float, float, float }

; Function Attrs: mustprogress nounwind uwtable
define hidden noundef i32 @_ZNK6cineon13GenericHeader17ComponentDataSizeEi(ptr noundef nonnull align 4 dereferenceable(1024) %this, i32 noundef %element) #1 align 2 {
entry:
  %retval = alloca i32, align 4
  %this.addr = alloca ptr, align 8
  %element.addr = alloca i32, align 4
  %ret = alloca i32, align 4
  store ptr %this, ptr %this.addr, align 8
  store i32 %element, ptr %element.addr, align 4
  %this1 = load ptr, ptr %this.addr, align 8
  %0 = load i32, ptr %element.addr, align 4
  %cmp = icmp slt i32 %0, 0
  br i1 %cmp, label %if.then, label %lor.lhs.false

lor.lhs.false:                                    ; preds = %entry
  %1 = load i32, ptr %element.addr, align 4
  %cmp2 = icmp sge i32 %1, 8
  br i1 %cmp2, label %if.then, label %if.end

if.then:                                          ; preds = %lor.lhs.false, %entry
  store i32 0, ptr %retval, align 4
  br label %return

if.end:                                           ; preds = %lor.lhs.false
  %chan = getelementptr inbounds %"struct.cineon::GenericHeader", ptr %this1, i32 0, i32 14
  %2 = load i32, ptr %element.addr, align 4
  %idxprom = sext i32 %2 to i64
  %arrayidx = getelementptr inbounds [8 x %"struct.cineon::ImageElement"], ptr %chan, i64 0, i64 %idxprom
  %bitDepth = getelementptr inbounds %"struct.cineon::ImageElement", ptr %arrayidx, i32 0, i32 1
  %3 = load i8, ptr %bitDepth, align 2
  %conv = zext i8 %3 to i32
  switch i32 %conv, label %sw.default [
    i32 8, label %sw.bb
    i32 10, label %sw.bb3
    i32 12, label %sw.bb3
    i32 16, label %sw.bb3
    i32 32, label %sw.bb4
    i32 64, label %sw.bb5
  ]

sw.bb:                                            ; preds = %if.end
  store i32 0, ptr %ret, align 4
  br label %sw.epilog

sw.bb3:                                           ; preds = %if.end, %if.end, %if.end
  store i32 1, ptr %ret, align 4
  br label %sw.epilog

sw.bb4:                                           ; preds = %if.end
  store i32 2, ptr %ret, align 4
  br label %sw.epilog

sw.bb5:                                           ; preds = %if.end
  store i32 3, ptr %ret, align 4
  br label %sw.epilog

sw.default:                                       ; preds = %if.end
  store i32 3, ptr %ret, align 4
  br label %sw.epilog

sw.epilog:                                        ; preds = %sw.default, %sw.bb5, %sw.bb4, %sw.bb3, %sw.bb
  %4 = load i32, ptr %ret, align 4
  store i32 %4, ptr %retval, align 4
  br label %return

return:                                           ; preds = %sw.epilog, %if.then
  %5 = load i32, ptr %retval, align 4
  ret i32 %5
}